target datalayout = "e-m:e-p270:32:32-p271:32:32-p272:64:64-i64:64-i128:128-f80:128-n8:16:32:64-S128"
target triple = "x86_64-pc-linux-gnu"

%"class.clang::QualType" = type { %"class.llvm::PointerIntPair" }
%"class.llvm::PointerIntPair" = type { %"struct.llvm::detail::PunnedPointer" }
%"struct.llvm::detail::PunnedPointer" = type { [8 x i8] }
%"class.llvm::APSInt" = type { %"class.llvm::APInt.base", i8, [3 x i8] }
%"class.llvm::APInt.base" = type <{ %union.anon.362, i32 }>
%union.anon.362 = type { i64 }
%"class.clang::APValue" = type { i32, [4 x i8], %"struct.llvm::AlignedCharArrayUnion" }
%"struct.llvm::AlignedCharArrayUnion" = type { [64 x i8] }
%"class.clang::Stmt" = type { %union.anon.360 }
%union.anon.360 = type { %"class.clang::Stmt::PseudoObjectExprBitfields" }
%"class.clang::Stmt::PseudoObjectExprBitfields" = type { i64 }
%"class.llvm::APInt" = type <{ %union.anon.362, i32, [4 x i8] }>
%"class.clang::ActionResult" = type { i64 }
%"class.clang::Stmt::ExprBitfields" = type <{ i8, i16, i8 }>

; Function Attrs: mustprogress nounwind uwtable
define linkonce_odr hidden noundef zeroext i8 @_ZN4llvm13to_underlyingIN5clang19ExprDependenceScope14ExprDependenceEEENSt15underlying_typeIT_E4typeES5_(i8 noundef zeroext %0) #0 comdat {
  %2 = alloca i8, align 1
  store i8 %0, ptr %2, align 1
  %3 = load i8, ptr %2, align 1
  ret i8 %3
}

; Function Attrs: mustprogress nounwind uwtable
define linkonce_odr hidden noundef zeroext i1 @_ZNK4llvm5APInt12isSingleWordEv(ptr noundef nonnull align 8 dereferenceable(12) %0) #0 comdat align 2 {
  %2 = alloca ptr, align 8
  store ptr %0, ptr %2, align 8
  %3 = load ptr, ptr %2, align 8
  %4 = getelementptr inbounds nuw %"class.llvm::APInt", ptr %3, i32 0, i32 1
  %5 = load i32, ptr %4, align 8
  %6 = icmp ule i32 %5, 64
  ret i1 %6
}

; Function Attrs: mustprogress nounwind uwtable
define linkonce_odr hidden noundef zeroext i8 @_ZN4llvm17BitmaskEnumDetail10UnderlyingIN5clang19ExprDependenceScope14ExprDependenceEEENSt15underlying_typeIT_E4typeES6_(i8 noundef zeroext %0) #0 comdat {
  %2 = alloca i8, align 1
  %3 = alloca i8, align 1
  store i8 %0, ptr %2, align 1
  %4 = load i8, ptr %2, align 1
  %5 = call noundef zeroext i8 @_ZN4llvm13to_underlyingIN5clang19ExprDependenceScope14ExprDependenceEEENSt15underlying_typeIT_E4typeES5_(i8 noundef zeroext %4)
  store i8 %5, ptr %3, align 1
  %6 = load i8, ptr %3, align 1
  ret i8 %6
}

; Function Attrs: mustprogress nounwind uwtable
define linkonce_odr hidden noundef nonnull align 8 dereferenceable(12) ptr @_ZN4llvm5APIntaSERKS0_(ptr noundef nonnull align 8 dereferenceable(12) %0, ptr noundef nonnull align 8 dereferenceable(12) %1) #0 comdat align 2 {
  %3 = alloca ptr, align 8
  %4 = alloca ptr, align 8
  %5 = alloca ptr, align 8
  store ptr %0, ptr %4, align 8
  store ptr %1, ptr %5, align 8
  %6 = load ptr, ptr %4, align 8
  %7 = call noundef zeroext i1 @_ZNK4llvm5APInt12isSingleWordEv(ptr noundef nonnull align 8 dereferenceable(12) %6)
  br i1 %7, label %8, label %20

8:                                                ; preds = %2
  %9 = load ptr, ptr %5, align 8
  %10 = call noundef zeroext i1 @_ZNK4llvm5APInt12isSingleWordEv(ptr noundef nonnull align 8 dereferenceable(12) %9)
  br i1 %10, label %11, label %20

11:                                               ; preds = %8
  %12 = load ptr, ptr %5, align 8
  %13 = getelementptr inbounds nuw %"class.llvm::APInt", ptr %12, i32 0, i32 0
  %14 = load i64, ptr %13, align 8
  %15 = getelementptr inbounds nuw %"class.llvm::APInt", ptr %6, i32 0, i32 0
  store i64 %14, ptr %15, align 8
  %16 = load ptr, ptr %5, align 8
  %17 = getelementptr inbounds nuw %"class.llvm::APInt", ptr %16, i32 0, i32 1
  %18 = load i32, ptr %17, align 8
  %19 = getelementptr inbounds nuw %"class.llvm::APInt", ptr %6, i32 0, i32 1
  store i32 %18, ptr %19, align 8
  store ptr %6, ptr %3, align 8
  br label %22

20:                                               ; preds = %8, %2
  %21 = load ptr, ptr %5, align 8
  call void @_ZN4llvm5APInt14assignSlowCaseERKS0_(ptr noundef nonnull align 8 dereferenceable(12) %6, ptr noundef nonnull align 8 dereferenceable(12) %21)
  store ptr %6, ptr %3, align 8
  br label %22

22:                                               ; preds = %20, %11
  %23 = load ptr, ptr %3, align 8
  ret ptr %23
}

; Function Attrs: mustprogress nounwind uwtable
define linkonce_odr hidden noundef zeroext i8 @_ZN4llvm17BitmaskEnumDetailanIN5clang19ExprDependenceScope14ExprDependenceEvEET_S5_S5_(i8 noundef zeroext %0, i8 noundef zeroext %1) #0 comdat {
  %3 = alloca i8, align 1
  %4 = alloca i8, align 1
  store i8 %0, ptr %3, align 1
  store i8 %1, ptr %4, align 1
  %5 = load i8, ptr %3, align 1
  %6 = call noundef zeroext i8 @_ZN4llvm17BitmaskEnumDetail10UnderlyingIN5clang19ExprDependenceScope14ExprDependenceEEENSt15underlying_typeIT_E4typeES6_(i8 noundef zeroext %5)
  %7 = zext i8 %6 to i32
  %8 = load i8, ptr %4, align 1
  %9 = call noundef zeroext i8 @_ZN4llvm17BitmaskEnumDetail10UnderlyingIN5clang19ExprDependenceScope14ExprDependenceEEENSt15underlying_typeIT_E4typeES6_(i8 noundef zeroext %8)
  %10 = zext i8 %9 to i32
  %11 = and i32 %7, %10
  %12 = trunc i32 %11 to i8
  ret i8 %12
}

; Function Attrs: mustprogress nounwind uwtable
define linkonce_odr hidden noundef zeroext i8 @_ZNK5clang4Expr13getDependenceEv(ptr noundef nonnull align 8 dereferenceable(16) %0) #0 comdat align 2 {
  %2 = alloca ptr, align 8
  store ptr %0, ptr %2, align 8
  %3 = load ptr, ptr %2, align 8
  %4 = getelementptr inbounds nuw %"class.clang::Stmt", ptr %3, i32 0, i32 0
  %5 = getelementptr inbounds nuw %"class.clang::Stmt::ExprBitfields", ptr %4, i32 0, i32 1
  %6 = load i16, ptr %5, align 1
  %7 = lshr i16 %6, 5
  %8 = and i16 %7, 31
  %9 = zext i16 %8 to i32
  %10 = trunc i32 %9 to i8
  ret i8 %10
}

; Function Attrs: mustprogress nounwind uwtable
define linkonce_odr hidden noundef ptr @_ZN4llvm21PointerLikeTypeTraitsIPN5clang4ExprEE18getFromVoidPointerEPv(ptr noundef %0) #0 comdat align 2 {
  %2 = alloca ptr, align 8
  store ptr %0, ptr %2, align 8
  %3 = load ptr, ptr %2, align 8
  ret ptr %3
}

; Function Attrs: mustprogress nounwind uwtable
define linkonce_odr hidden void @_ZN5clang7APValueD2Ev(ptr noundef nonnull align 8 dereferenceable(72) %0) unnamed_addr #0 comdat align 2 {
  %2 = alloca ptr, align 8
  store ptr %0, ptr %2, align 8
  %3 = load ptr, ptr %2, align 8
  %4 = getelementptr inbounds nuw %"class.clang::APValue", ptr %3, i32 0, i32 0
  %5 = load i32, ptr %4, align 8
  %6 = icmp ne i32 %5, 0
  br i1 %6, label %7, label %12

7:                                                ; preds = %1
  %8 = getelementptr inbounds nuw %"class.clang::APValue", ptr %3, i32 0, i32 0
  %9 = load i32, ptr %8, align 8
  %10 = icmp ne i32 %9, 1
  br i1 %10, label %11, label %12

11:                                               ; preds = %7
  call void @_ZN5clang7APValue24DestroyDataAndMakeUninitEv(ptr noundef nonnull align 8 dereferenceable(72) %3)
  br label %12

12:                                               ; preds = %11, %7, %1
  ret void
}

; Function Attrs: mustprogress nounwind uwtable
define linkonce_odr hidden noundef nonnull align 8 dereferenceable(13) ptr @_ZN4llvm6APSIntaSERKS0_(ptr noundef nonnull align 8 dereferenceable(13) %0, ptr noundef nonnull align 8 dereferenceable(13) %1) #0 comdat align 2 {
  %3 = alloca ptr, align 8
  %4 = alloca ptr, align 8
  store ptr %0, ptr %3, align 8
  store ptr %1, ptr %4, align 8
  %5 = load ptr, ptr %3, align 8
  %6 = load ptr, ptr %4, align 8
  %7 = call noundef nonnull align 8 dereferenceable(12) ptr @_ZN4llvm5APIntaSERKS0_(ptr noundef nonnull align 8 dereferenceable(12) %5, ptr noundef nonnull align 8 dereferenceable(12) %6)
  %8 = load ptr, ptr %4, align 8
  %9 = getelementptr inbounds nuw %"class.llvm::APSInt", ptr %8, i32 0, i32 1
  %10 = load i8, ptr %9, align 4
  %11 = trunc i8 %10 to i1
  %12 = getelementptr inbounds nuw %"class.llvm::APSInt", ptr %5, i32 0, i32 1
  %13 = zext i1 %11 to i8
  store i8 %13, ptr %12, align 4
  ret ptr %5
}

; Function Attrs: mustprogress nounwind uwtable
define linkonce_odr hidden noundef nonnull align 8 dereferenceable(13) ptr @_ZN5clang7APValue6getIntEv(ptr noundef nonnull align 8 dereferenceable(72) %0) #0 comdat align 2 {
  %2 = alloca ptr, align 8
  store ptr %0, ptr %2, align 8
  %3 = load ptr, ptr %2, align 8
  %4 = getelementptr inbounds nuw %"class.clang::APValue", ptr %3, i32 0, i32 2
  ret ptr %4
}

; Function Attrs: mustprogress nounwind uwtable
define linkonce_odr hidden noundef zeroext i1 @_ZNK5clang4Expr16isValueDependentEv(ptr noundef nonnull align 8 dereferenceable(16) %0) #0 comdat align 2 {
  %2 = alloca ptr, align 8
  store ptr %0, ptr %2, align 8
  %3 = load ptr, ptr %2, align 8
  %4 = call noundef zeroext i8 @_ZNK5clang4Expr13getDependenceEv(ptr noundef nonnull align 8 dereferenceable(16) %3)
  %5 = call noundef zeroext i8 @_ZN4llvm17BitmaskEnumDetailanIN5clang19ExprDependenceScope14ExprDependenceEvEET_S5_S5_(i8 noundef zeroext %4, i8 noundef zeroext 8)
  %6 = icmp ne i8 %5, 0
  ret i1 %6
}

; Function Attrs: mustprogress nounwind uwtable
define linkonce_odr hidden noundef ptr @_ZNK5clang12ActionResultIPNS_4ExprELb1EE3getEv(ptr noundef nonnull align 8 dereferenceable(8) %0) #0 comdat align 2 {
  %2 = alloca ptr, align 8
  %3 = alloca ptr, align 8
  store ptr %0, ptr %2, align 8
  %4 = load ptr, ptr %2, align 8
  %5 = getelementptr inbounds nuw %"class.clang::ActionResult", ptr %4, i32 0, i32 0
  %6 = load i64, ptr %5, align 8
  %7 = and i64 %6, -2
  %8 = inttoptr i64 %7 to ptr
  store ptr %8, ptr %3, align 8
  %9 = load ptr, ptr %3, align 8
  %10 = call noundef ptr @_ZN4llvm21PointerLikeTypeTraitsIPN5clang4ExprEE18getFromVoidPointerEPv(ptr noundef %9)
  ret ptr %10
}

; Function Attrs: mustprogress nounwind uwtable
define linkonce_odr hidden noundef zeroext i1 @_ZNK5clang12ActionResultIPNS_4ExprELb1EE9isInvalidEv(ptr noundef nonnull align 8 dereferenceable(8) %0) #0 comdat align 2 {
  %2 = alloca ptr, align 8
  store ptr %0, ptr %2, align 8
  %3 = load ptr, ptr %2, align 8
  %4 = getelementptr inbounds nuw %"class.clang::ActionResult", ptr %3, i32 0, i32 0
  %5 = load i64, ptr %4, align 8
  %6 = icmp eq i64 %5, 1
  ret i1 %6
}

; Function Attrs: mustprogress nounwind uwtable
define linkonce_odr hidden void @_ZN5clang7APValueC2Ev(ptr noundef nonnull align 8 dereferenceable(72) %0) unnamed_addr #0 comdat align 2 {
  %2 = alloca ptr, align 8
  store ptr %0, ptr %2, align 8
  %3 = load ptr, ptr %2, align 8
  %4 = getelementptr inbounds nuw %"class.clang::APValue", ptr %3, i32 0, i32 0
  store i32 0, ptr %4, align 8
  ret void
}

; Function Attrs: mustprogress nounwind uwtable
define dso_local i64 @_ZN5clang4Sema32CheckConvertedConstantExpressionEPNS_4ExprENS_8QualTypeERN4llvm6APSIntENS0_7CCEKindE(ptr noundef nonnull align 8 dereferenceable(17560) %0, ptr noundef %1, i64 %2, ptr noundef nonnull align 8 dereferenceable(13) %3, i32 noundef %4) #0 align 2 {
  %6 = alloca %"class.clang::ActionResult", align 8
  %7 = alloca %"class.clang::QualType", align 8
  %8 = alloca ptr, align 8
  %9 = alloca ptr, align 8
  %10 = alloca ptr, align 8
  %11 = alloca i32, align 4
  %12 = alloca %"class.clang::APValue", align 8
  %13 = alloca %"class.clang::QualType", align 8
  %14 = getelementptr inbounds nuw %"class.clang::QualType", ptr %7, i32 0, i32 0
  %15 = getelementptr inbounds nuw %"class.llvm::PointerIntPair", ptr %14, i32 0, i32 0
  %16 = getelementptr inbounds nuw %"struct.llvm::detail::PunnedPointer", ptr %15, i32 0, i32 0
  store i64 %2, ptr %16, align 8
  store ptr %0, ptr %8, align 8
  store ptr %1, ptr %9, align 8
  store ptr %3, ptr %10, align 8
  store i32 %4, ptr %11, align 4
  %17 = load ptr, ptr %8, align 8
  call void @_ZN5clang7APValueC2Ev(ptr noundef nonnull align 8 dereferenceable(72) %12)
  %18 = load ptr, ptr %9, align 8
  call void @llvm.memcpy.p0.p0.i64(ptr align 8 %13, ptr align 8 %7, i64 8, i1 false)
  %19 = load i32, ptr %11, align 4
  %20 = getelementptr inbounds nuw %"class.clang::QualType", ptr %13, i32 0, i32 0
  %21 = getelementptr inbounds nuw %"class.llvm::PointerIntPair", ptr %20, i32 0, i32 0
  %22 = getelementptr inbounds nuw %"struct.llvm::detail::PunnedPointer", ptr %21, i32 0, i32 0
  %23 = load i64, ptr %22, align 8
  %24 = call i64 @_ZL32CheckConvertedConstantExpressionRN5clang4SemaEPNS_4ExprENS_8QualTypeERNS_7APValueENS0_7CCEKindEbPNS_9NamedDeclE(ptr noundef nonnull align 8 dereferenceable(17560) %17, ptr noundef %18, i64 %23, ptr noundef nonnull align 8 dereferenceable(72) %12, i32 noundef %19, i1 noundef zeroext true, ptr noundef null)
  %25 = getelementptr inbounds nuw %"class.clang::ActionResult", ptr %6, i32 0, i32 0
  store i64 %24, ptr %25, align 8
  %26 = call noundef zeroext i1 @_ZNK5clang12ActionResultIPNS_4ExprELb1EE9isInvalidEv(ptr noundef nonnull align 8 dereferenceable(8) %6)
  br i1 %26, label %34, label %27

27:                                               ; preds = %5
  %28 = call noundef ptr @_ZNK5clang12ActionResultIPNS_4ExprELb1EE3getEv(ptr noundef nonnull align 8 dereferenceable(8) %6)
  %29 = call noundef zeroext i1 @_ZNK5clang4Expr16isValueDependentEv(ptr noundef nonnull align 8 dereferenceable(16) %28)
  br i1 %29, label %34, label %30

30:                                               ; preds = %27
  %31 = call noundef nonnull align 8 dereferenceable(13) ptr @_ZN5clang7APValue6getIntEv(ptr noundef nonnull align 8 dereferenceable(72) %12)
  %32 = load ptr, ptr %10, align 8
  %33 = call noundef nonnull align 8 dereferenceable(13) ptr @_ZN4llvm6APSIntaSERKS0_(ptr noundef nonnull align 8 dereferenceable(13) %32, ptr noundef nonnull align 8 dereferenceable(13) %31)
  br label %34

34:                                               ; preds = %30, %27, %5
  call void @_ZN5clang7APValueD2Ev(ptr noundef nonnull align 8 dereferenceable(72) %12) #16
  %35 = getelementptr inbounds nuw %"class.clang::ActionResult", ptr %6, i32 0, i32 0
  %36 = load i64, ptr %35, align 8
  ret i64 %36
}