; Function Attrs: mustprogress nounwind uwtable
define dso_local i64 @_ZN5clang4Sema32CheckConvertedConstantExpressionEPNS_4ExprENS_8QualTypeERN4llvm6APSIntENS0_7CCEKindE(ptr noundef nonnull align 8 dereferenceable(17560) %0, ptr noundef %1, i64 %2, ptr noundef nonnull align 8 dereferenceable(13) %3, i32 noundef %4) local_unnamed_addr #4 align 2 {
  %6 = alloca %"class.clang::APValue", align 8
  store i32 0, ptr %6, align 8
  %7 = call fastcc i64 @_ZL32CheckConvertedConstantExpressionRN5clang4SemaEPNS_4ExprENS_8QualTypeERNS_7APValueENS0_7CCEKindEbPNS_9NamedDeclE(ptr noundef nonnull align 8 dereferenceable(17560) %0, ptr noundef %1, i64 %2, ptr noundef nonnull align 8 dereferenceable(72) %6, i32 noundef %4, i1 noundef zeroext true, ptr noundef null)
  %8 = icmp eq i64 %7, 1
  br i1 %8, label %31, label %9

9:                                                ; preds = %5
  %10 = and i64 %7, -2
  %11 = inttoptr i64 %10 to ptr
  %12 = getelementptr inbounds nuw i8, ptr %11, i64 1
  %13 = load i16, ptr %12, align 1
  %14 = and i16 %13, 256
  %.not = icmp eq i16 %14, 0
  br i1 %.not, label %15, label %31

15:                                               ; preds = %9
  %16 = getelementptr inbounds nuw i8, ptr %6, i64 8
  %17 = getelementptr inbounds nuw i8, ptr %3, i64 8
  %18 = load i32, ptr %17, align 8
  %19 = icmp ult i32 %18, 65
  br i1 %19, label %20, label %26

20:                                               ; preds = %15
  %21 = getelementptr inbounds i8, ptr %6, i64 16
  %22 = load i32, ptr %21, align 8
  %23 = icmp ult i32 %22, 65
  br i1 %23, label %24, label %26

24:                                               ; preds = %20
  %25 = load i64, ptr %16, align 8
  store i64 %25, ptr %3, align 8
  store i32 %22, ptr %17, align 8
  br label %_ZN4llvm6APSIntaSERKS0_.exit

26:                                               ; preds = %20, %15
  call void @_ZN4llvm5APInt14assignSlowCaseERKS0_(ptr noundef nonnull align 8 dereferenceable(12) %3, ptr noundef nonnull align 8 dereferenceable(12) %16) #26
  br label %_ZN4llvm6APSIntaSERKS0_.exit

_ZN4llvm6APSIntaSERKS0_.exit:                     ; preds = %24, %26
  %27 = getelementptr inbounds i8, ptr %6, i64 20
  %28 = load i8, ptr %27, align 4
  %29 = getelementptr inbounds nuw i8, ptr %3, i64 12
  %30 = and i8 %28, 1
  store i8 %30, ptr %29, align 4
  br label %31

31:                                               ; preds = %_ZN4llvm6APSIntaSERKS0_.exit, %9, %5
  %32 = load i32, ptr %6, align 8
  %switch.i = icmp ult i32 %32, 2
  br i1 %switch.i, label %_ZN5clang7APValueD2Ev.exit, label %33

33:                                               ; preds = %31
  call void @_ZN5clang7APValue24DestroyDataAndMakeUninitEv(ptr noundef nonnull align 8 dereferenceable(72) %6) #26
  br label %_ZN5clang7APValueD2Ev.exit

_ZN5clang7APValueD2Ev.exit:                       ; preds = %31, %33
  ret i64 %7
}